; ModuleID = '11/563.c'
source_filename = "11/563.c"
target datalayout = "e-m:e-p270:32:32-p271:32:32-p272:64:64-i64:64-f80:128-n8:16:32:64-S128"
target triple = "x86_64-pc-linux-gnu"

@.str = private unnamed_addr constant [9 x i8] c"%d %d %d\00", align 1
@.str.1 = private unnamed_addr constant [3 x i8] c"%d\00", align 1

; Function Attrs: noinline nounwind uwtable
define dso_local i32 @main() #0 {
  %1 = alloca i32, align 4
  %2 = alloca i32, align 4
  %3 = alloca i32, align 4
  %4 = alloca i32, align 4
  %5 = alloca i32, align 4
  %6 = alloca i32, align 4
  %7 = alloca [12 x i32], align 16
  %8 = alloca i32, align 4
  store i32 0, i32* %1, align 4
  store i32 0, i32* %8, align 4
  %9 = call i32 (i8*, ...) @__isoc99_scanf(i8* getelementptr inbounds ([9 x i8], [9 x i8]* @.str, i64 0, i64 0), i32* %2, i32* %3, i32* %4)
  %10 = load i32, i32* %2, align 4
  %11 = srem i32 %10, 4
  %12 = icmp eq i32 %11, 0
  br i1 %12, label %13, label %17

13:                                               ; preds = %0
  %14 = load i32, i32* %2, align 4
  %15 = srem i32 %14, 100
  %16 = icmp ne i32 %15, 0
  br i1 %16, label %21, label %17

17:                                               ; preds = %13, %0
  %18 = load i32, i32* %2, align 4
  %19 = srem i32 %18, 400
  %20 = icmp eq i32 %19, 0
  br i1 %20, label %21, label %23

21:                                               ; preds = %17, %13
  %22 = getelementptr inbounds [12 x i32], [12 x i32]* %7, i64 0, i64 1
  store i32 29, i32* %22, align 4
  br label %25

23:                                               ; preds = %17
  %24 = getelementptr inbounds [12 x i32], [12 x i32]* %7, i64 0, i64 1
  store i32 28, i32* %24, align 4
  br label %25

25:                                               ; preds = %23, %21
  %26 = getelementptr inbounds [12 x i32], [12 x i32]* %7, i64 0, i64 0
  store i32 31, i32* %26, align 16
  %27 = getelementptr inbounds [12 x i32], [12 x i32]* %7, i64 0, i64 2
  store i32 31, i32* %27, align 8
  %28 = getelementptr inbounds [12 x i32], [12 x i32]* %7, i64 0, i64 3
  store i32 30, i32* %28, align 4
  %29 = getelementptr inbounds [12 x i32], [12 x i32]* %7, i64 0, i64 4
  store i32 31, i32* %29, align 16
  %30 = getelementptr inbounds [12 x i32], [12 x i32]* %7, i64 0, i64 5
  store i32 30, i32* %30, align 4
  %31 = getelementptr inbounds [12 x i32], [12 x i32]* %7, i64 0, i64 6
  store i32 31, i32* %31, align 8
  %32 = getelementptr inbounds [12 x i32], [12 x i32]* %7, i64 0, i64 7
  store i32 31, i32* %32, align 4
  %33 = getelementptr inbounds [12 x i32], [12 x i32]* %7, i64 0, i64 8
  store i32 30, i32* %33, align 16
  %34 = getelementptr inbounds [12 x i32], [12 x i32]* %7, i64 0, i64 9
  store i32 31, i32* %34, align 4
  %35 = getelementptr inbounds [12 x i32], [12 x i32]* %7, i64 0, i64 10
  store i32 30, i32* %35, align 8
  %36 = getelementptr inbounds [12 x i32], [12 x i32]* %7, i64 0, i64 11
  store i32 31, i32* %36, align 4
  store i32 1, i32* %5, align 4
  br label %37

37:                                               ; preds = %49, %25
  %38 = load i32, i32* %5, align 4
  %39 = load i32, i32* %3, align 4
  %40 = icmp sle i32 %38, %39
  br i1 %40, label %41, label %52

41:                                               ; preds = %37
  %42 = load i32, i32* %8, align 4
  %43 = load i32, i32* %5, align 4
  %44 = sub nsw i32 %43, 2
  %45 = sext i32 %44 to i64
  %46 = getelementptr inbounds [12 x i32], [12 x i32]* %7, i64 0, i64 %45
  %47 = load i32, i32* %46, align 4
  %48 = add nsw i32 %42, %47
  store i32 %48, i32* %8, align 4
  br label %49

49:                                               ; preds = %41
  %50 = load i32, i32* %5, align 4
  %51 = add nsw i32 %50, 1
  store i32 %51, i32* %5, align 4
  br label %37

52:                                               ; preds = %37
  %53 = load i32, i32* %8, align 4
  %54 = load i32, i32* %4, align 4
  %55 = add nsw i32 %53, %54
  store i32 %55, i32* %6, align 4
  %56 = load i32, i32* %6, align 4
  %57 = call i32 (i8*, ...) @printf(i8* getelementptr inbounds ([3 x i8], [3 x i8]* @.str.1, i64 0, i64 0), i32 %56)
  ret i32 0
}

declare dso_local i32 @__isoc99_scanf(i8*, ...) #1

declare dso_local i32 @printf(i8*, ...) #1


!llvm.module.flags = !{!0}
!llvm.ident = !{!1}

!0 = !{i32 1, !"wchar_size", i32 4}
!1 = !{!"clang version 10.0.0-4ubuntu1 "}
